target datalayout = "e-m:e-p270:32:32-p271:32:32-p272:64:64-i64:64-i128:128-f80:128-n8:16:32:64-S128"
target triple = "x86_64-pc-linux-gnu"

%struct.Sat_Mem_t_ = type { [2 x i32], [2 x i32], [2 x i32], [2 x i32], i32, i32, i32, i32, ptr }
%struct.clause_t = type { i32, [0 x i32] }

; Function Attrs: inlinehint nounwind uwtable
define internal i32 @Sat_MemHandCurrent(ptr noundef %0, i32 noundef %1) #1 {
  %3 = alloca ptr, align 8
  %4 = alloca i32, align 4
  store ptr %0, ptr %3, align 8, !tbaa !51
  store i32 %1, ptr %4, align 4, !tbaa !8
  %5 = load ptr, ptr %3, align 8, !tbaa !51
  %6 = getelementptr inbounds nuw %struct.Sat_Mem_t_, ptr %5, i32 0, i32 3
  %7 = load i32, ptr %4, align 4, !tbaa !8
  %8 = sext i32 %7 to i64
  %9 = getelementptr inbounds [2 x i32], ptr %6, i64 0, i64 %8
  %10 = load i32, ptr %9, align 4, !tbaa !8
  %11 = load ptr, ptr %3, align 8, !tbaa !51
  %12 = getelementptr inbounds nuw %struct.Sat_Mem_t_, ptr %11, i32 0, i32 4
  %13 = load i32, ptr %12, align 8, !tbaa !54
  %14 = shl i32 %10, %13
  %15 = load ptr, ptr %3, align 8, !tbaa !51
  %16 = getelementptr inbounds nuw %struct.Sat_Mem_t_, ptr %15, i32 0, i32 8
  %17 = load ptr, ptr %16, align 8, !tbaa !53
  %18 = load ptr, ptr %3, align 8, !tbaa !51
  %19 = getelementptr inbounds nuw %struct.Sat_Mem_t_, ptr %18, i32 0, i32 3
  %20 = load i32, ptr %4, align 4, !tbaa !8
  %21 = sext i32 %20 to i64
  %22 = getelementptr inbounds [2 x i32], ptr %19, i64 0, i64 %21
  %23 = load i32, ptr %22, align 4, !tbaa !8
  %24 = sext i32 %23 to i64
  %25 = getelementptr inbounds ptr, ptr %17, i64 %24
  %26 = load ptr, ptr %25, align 8, !tbaa !26
  %27 = call i32 @Sat_MemLimit(ptr noundef %26)
  %28 = or i32 %14, %27
  ret i32 %28
}

; Function Attrs: inlinehint nounwind uwtable
define internal i32 @Sat_MemIncLimit(ptr noundef %0, i32 noundef %1) #1 {
  %3 = alloca ptr, align 8
  %4 = alloca i32, align 4
  store ptr %0, ptr %3, align 8, !tbaa !26
  store i32 %1, ptr %4, align 4, !tbaa !8
  %5 = load i32, ptr %4, align 4, !tbaa !8
  %6 = load ptr, ptr %3, align 8, !tbaa !26
  %7 = getelementptr inbounds i32, ptr %6, i64 0
  %8 = load i32, ptr %7, align 4, !tbaa !8
  %9 = add nsw i32 %8, %5
  store i32 %9, ptr %7, align 4, !tbaa !8
  ret i32 %9
}

; Function Attrs: inlinehint nounwind uwtable
define internal void @Sat_MemWriteLimit(ptr noundef %0, i32 noundef %1) #1 {
  %3 = alloca ptr, align 8
  %4 = alloca i32, align 4
  store ptr %0, ptr %3, align 8, !tbaa !26
  store i32 %1, ptr %4, align 4, !tbaa !8
  %5 = load i32, ptr %4, align 4, !tbaa !8
  %6 = load ptr, ptr %3, align 8, !tbaa !26
  %7 = getelementptr inbounds i32, ptr %6, i64 0
  store i32 %5, ptr %7, align 4, !tbaa !8
  ret void
}

; Function Attrs: inlinehint nounwind uwtable
define internal i32 @Sat_MemLimit(ptr noundef %0) #1 {
  %2 = alloca ptr, align 8
  store ptr %0, ptr %2, align 8, !tbaa !26
  %3 = load ptr, ptr %2, align 8, !tbaa !26
  %4 = getelementptr inbounds i32, ptr %3, i64 0
  %5 = load i32, ptr %4, align 4, !tbaa !8
  ret i32 %5
}

; Function Attrs: inlinehint nounwind uwtable
define internal i32 @Sat_MemIntSize(i32 noundef %0, i32 noundef %1) #1 {
  %3 = alloca i32, align 4
  %4 = alloca i32, align 4
  store i32 %0, ptr %3, align 4, !tbaa !8
  store i32 %1, ptr %4, align 4, !tbaa !8
  %5 = load i32, ptr %3, align 4, !tbaa !8
  %6 = add nsw i32 %5, 2
  %7 = load i32, ptr %4, align 4, !tbaa !8
  %8 = add nsw i32 %6, %7
  %9 = sdiv i32 %8, 2
  %10 = mul nsw i32 2, %9
  ret i32 %10
}

; Function Attrs: inlinehint nounwind uwtable
define internal i32 @Sat_MemAppend(ptr noundef %0, ptr noundef %1, i32 noundef %2, i32 noundef %3, i32 noundef %4) #1 {
  %6 = alloca ptr, align 8
  %7 = alloca ptr, align 8
  %8 = alloca i32, align 4
  %9 = alloca i32, align 4
  %10 = alloca i32, align 4
  %11 = alloca ptr, align 8
  %12 = alloca ptr, align 8
  %13 = alloca i32, align 4
  store ptr %0, ptr %6, align 8, !tbaa !51
  store ptr %1, ptr %7, align 8, !tbaa !26
  store i32 %2, ptr %8, align 4, !tbaa !8
  store i32 %3, ptr %9, align 4, !tbaa !8
  store i32 %4, ptr %10, align 4, !tbaa !8
  call void @llvm.lifetime.start.p0(i64 8, ptr %11) #13
  call void @llvm.lifetime.start.p0(i64 8, ptr %12) #13
  %14 = load ptr, ptr %6, align 8, !tbaa !51
  %15 = getelementptr inbounds nuw %struct.Sat_Mem_t_, ptr %14, i32 0, i32 8
  %16 = load ptr, ptr %15, align 8, !tbaa !53
  %17 = load ptr, ptr %6, align 8, !tbaa !51
  %18 = getelementptr inbounds nuw %struct.Sat_Mem_t_, ptr %17, i32 0, i32 3
  %19 = load i32, ptr %9, align 4, !tbaa !8
  %20 = sext i32 %19 to i64
  %21 = getelementptr inbounds [2 x i32], ptr %18, i64 0, i64 %20
  %22 = load i32, ptr %21, align 4, !tbaa !8
  %23 = sext i32 %22 to i64
  %24 = getelementptr inbounds ptr, ptr %16, i64 %23
  %25 = load ptr, ptr %24, align 8, !tbaa !26
  store ptr %25, ptr %12, align 8, !tbaa !26
  call void @llvm.lifetime.start.p0(i64 4, ptr %13) #13
  %26 = load i32, ptr %8, align 4, !tbaa !8
  %27 = load i32, ptr %9, align 4, !tbaa !8
  %28 = load i32, ptr %10, align 4, !tbaa !8
  %29 = or i32 %27, %28
  %30 = call i32 @Sat_MemIntSize(i32 noundef %26, i32 noundef %29)
  store i32 %30, ptr %13, align 4, !tbaa !8
  %31 = load ptr, ptr %12, align 8, !tbaa !26
  %32 = call i32 @Sat_MemLimit(ptr noundef %31)
  %33 = load i32, ptr %13, align 4, !tbaa !8
  %34 = add nsw i32 %32, %33
  %35 = add nsw i32 %34, 2
  %36 = load ptr, ptr %6, align 8, !tbaa !51
  %37 = getelementptr inbounds nuw %struct.Sat_Mem_t_, ptr %36, i32 0, i32 4
  %38 = load i32, ptr %37, align 8, !tbaa !54
  %39 = shl i32 1, %38
  %40 = icmp sge i32 %35, %39
  br i1 %40, label %41, label %153

41:                                               ; preds = %5
  %42 = load ptr, ptr %6, align 8, !tbaa !51
  %43 = getelementptr inbounds nuw %struct.Sat_Mem_t_, ptr %42, i32 0, i32 3
  %44 = load i32, ptr %9, align 4, !tbaa !8
  %45 = sext i32 %44 to i64
  %46 = getelementptr inbounds [2 x i32], ptr %43, i64 0, i64 %45
  %47 = load i32, ptr %46, align 4, !tbaa !8
  %48 = add nsw i32 %47, 2
  store i32 %48, ptr %46, align 4, !tbaa !8
  %49 = load ptr, ptr %6, align 8, !tbaa !51
  %50 = getelementptr inbounds nuw %struct.Sat_Mem_t_, ptr %49, i32 0, i32 3
  %51 = load i32, ptr %9, align 4, !tbaa !8
  %52 = sext i32 %51 to i64
  %53 = getelementptr inbounds [2 x i32], ptr %50, i64 0, i64 %52
  %54 = load i32, ptr %53, align 4, !tbaa !8
  %55 = load ptr, ptr %6, align 8, !tbaa !51
  %56 = getelementptr inbounds nuw %struct.Sat_Mem_t_, ptr %55, i32 0, i32 7
  %57 = load i32, ptr %56, align 4, !tbaa !55
  %58 = icmp sge i32 %54, %57
  br i1 %58, label %59, label %104

59:                                               ; preds = %41
  %60 = load ptr, ptr %6, align 8, !tbaa !51
  %61 = getelementptr inbounds nuw %struct.Sat_Mem_t_, ptr %60, i32 0, i32 8
  %62 = load ptr, ptr %61, align 8, !tbaa !53
  %63 = icmp ne ptr %62, null
  br i1 %63, label %64, label %75

64:                                               ; preds = %59
  %65 = load ptr, ptr %6, align 8, !tbaa !51
  %66 = getelementptr inbounds nuw %struct.Sat_Mem_t_, ptr %65, i32 0, i32 8
  %67 = load ptr, ptr %66, align 8, !tbaa !53
  %68 = load ptr, ptr %6, align 8, !tbaa !51
  %69 = getelementptr inbounds nuw %struct.Sat_Mem_t_, ptr %68, i32 0, i32 7
  %70 = load i32, ptr %69, align 4, !tbaa !55
  %71 = mul nsw i32 %70, 2
  %72 = sext i32 %71 to i64
  %73 = mul i64 8, %72
  %74 = call ptr @realloc(ptr noundef %67, i64 noundef %73) #14
  br label %83

75:                                               ; preds = %59
  %76 = load ptr, ptr %6, align 8, !tbaa !51
  %77 = getelementptr inbounds nuw %struct.Sat_Mem_t_, ptr %76, i32 0, i32 7
  %78 = load i32, ptr %77, align 4, !tbaa !55
  %79 = mul nsw i32 %78, 2
  %80 = sext i32 %79 to i64
  %81 = mul i64 8, %80
  %82 = call noalias ptr @malloc(i64 noundef %81) #15
  br label %83

83:                                               ; preds = %75, %64
  %84 = phi ptr [ %74, %64 ], [ %82, %75 ]
  %85 = load ptr, ptr %6, align 8, !tbaa !51
  %86 = getelementptr inbounds nuw %struct.Sat_Mem_t_, ptr %85, i32 0, i32 8
  store ptr %84, ptr %86, align 8, !tbaa !53
  %87 = load ptr, ptr %6, align 8, !tbaa !51
  %88 = getelementptr inbounds nuw %struct.Sat_Mem_t_, ptr %87, i32 0, i32 8
  %89 = load ptr, ptr %88, align 8, !tbaa !53
  %90 = load ptr, ptr %6, align 8, !tbaa !51
  %91 = getelementptr inbounds nuw %struct.Sat_Mem_t_, ptr %90, i32 0, i32 7
  %92 = load i32, ptr %91, align 4, !tbaa !55
  %93 = sext i32 %92 to i64
  %94 = getelementptr inbounds ptr, ptr %89, i64 %93
  %95 = load ptr, ptr %6, align 8, !tbaa !51
  %96 = getelementptr inbounds nuw %struct.Sat_Mem_t_, ptr %95, i32 0, i32 7
  %97 = load i32, ptr %96, align 4, !tbaa !55
  %98 = sext i32 %97 to i64
  %99 = mul i64 8, %98
  call void @llvm.memset.p0.i64(ptr align 8 %94, i8 0, i64 %99, i1 false)
  %100 = load ptr, ptr %6, align 8, !tbaa !51
  %101 = getelementptr inbounds nuw %struct.Sat_Mem_t_, ptr %100, i32 0, i32 7
  %102 = load i32, ptr %101, align 4, !tbaa !55
  %103 = mul nsw i32 %102, 2
  store i32 %103, ptr %101, align 4, !tbaa !55
  br label %104

104:                                              ; preds = %83, %41
  %105 = load ptr, ptr %6, align 8, !tbaa !51
  %106 = getelementptr inbounds nuw %struct.Sat_Mem_t_, ptr %105, i32 0, i32 8
  %107 = load ptr, ptr %106, align 8, !tbaa !53
  %108 = load ptr, ptr %6, align 8, !tbaa !51
  %109 = getelementptr inbounds nuw %struct.Sat_Mem_t_, ptr %108, i32 0, i32 3
  %110 = load i32, ptr %9, align 4, !tbaa !8
  %111 = sext i32 %110 to i64
  %112 = getelementptr inbounds [2 x i32], ptr %109, i64 0, i64 %111
  %113 = load i32, ptr %112, align 4, !tbaa !8
  %114 = sext i32 %113 to i64
  %115 = getelementptr inbounds ptr, ptr %107, i64 %114
  %116 = load ptr, ptr %115, align 8, !tbaa !26
  %117 = icmp eq ptr %116, null
  br i1 %117, label %118, label %139

118:                                              ; preds = %104
  %119 = load ptr, ptr %6, align 8, !tbaa !51
  %120 = getelementptr inbounds nuw %struct.Sat_Mem_t_, ptr %119, i32 0, i32 4
  %121 = load i32, ptr %120, align 8, !tbaa !54
  %122 = zext i32 %121 to i64
  %123 = shl i64 1, %122
  %124 = trunc i64 %123 to i32
  %125 = sext i32 %124 to i64
  %126 = mul i64 4, %125
  %127 = call noalias ptr @malloc(i64 noundef %126) #15
  %128 = load ptr, ptr %6, align 8, !tbaa !51
  %129 = getelementptr inbounds nuw %struct.Sat_Mem_t_, ptr %128, i32 0, i32 8
  %130 = load ptr, ptr %129, align 8, !tbaa !53
  %131 = load ptr, ptr %6, align 8, !tbaa !51
  %132 = getelementptr inbounds nuw %struct.Sat_Mem_t_, ptr %131, i32 0, i32 3
  %133 = load i32, ptr %9, align 4, !tbaa !8
  %134 = sext i32 %133 to i64
  %135 = getelementptr inbounds [2 x i32], ptr %132, i64 0, i64 %134
  %136 = load i32, ptr %135, align 4, !tbaa !8
  %137 = sext i32 %136 to i64
  %138 = getelementptr inbounds ptr, ptr %130, i64 %137
  store ptr %127, ptr %138, align 8, !tbaa !26
  br label %139

139:                                              ; preds = %118, %104
  %140 = load ptr, ptr %6, align 8, !tbaa !51
  %141 = getelementptr inbounds nuw %struct.Sat_Mem_t_, ptr %140, i32 0, i32 8
  %142 = load ptr, ptr %141, align 8, !tbaa !53
  %143 = load ptr, ptr %6, align 8, !tbaa !51
  %144 = getelementptr inbounds nuw %struct.Sat_Mem_t_, ptr %143, i32 0, i32 3
  %145 = load i32, ptr %9, align 4, !tbaa !8
  %146 = sext i32 %145 to i64
  %147 = getelementptr inbounds [2 x i32], ptr %144, i64 0, i64 %146
  %148 = load i32, ptr %147, align 4, !tbaa !8
  %149 = sext i32 %148 to i64
  %150 = getelementptr inbounds ptr, ptr %142, i64 %149
  %151 = load ptr, ptr %150, align 8, !tbaa !26
  store ptr %151, ptr %12, align 8, !tbaa !26
  %152 = load ptr, ptr %12, align 8, !tbaa !26
  call void @Sat_MemWriteLimit(ptr noundef %152, i32 noundef 2)
  br label %153

153:                                              ; preds = %139, %5
  %154 = load ptr, ptr %12, align 8, !tbaa !26
  %155 = load ptr, ptr %12, align 8, !tbaa !26
  %156 = call i32 @Sat_MemLimit(ptr noundef %155)
  %157 = sext i32 %156 to i64
  %158 = getelementptr inbounds i32, ptr %154, i64 %157
  store i32 0, ptr %158, align 4, !tbaa !8
  %159 = load ptr, ptr %12, align 8, !tbaa !26
  %160 = load ptr, ptr %12, align 8, !tbaa !26
  %161 = call i32 @Sat_MemLimit(ptr noundef %160)
  %162 = sext i32 %161 to i64
  %163 = getelementptr inbounds i32, ptr %159, i64 %162
  store ptr %163, ptr %11, align 8, !tbaa !40
  %164 = load i32, ptr %8, align 4, !tbaa !8
  %165 = load ptr, ptr %11, align 8, !tbaa !40
  %166 = load i32, ptr %165, align 4
  %167 = and i32 %164, 2097151
  %168 = shl i32 %167, 11
  %169 = and i32 %166, 2047
  %170 = or i32 %169, %168
  store i32 %170, ptr %165, align 4
  %171 = load i32, ptr %9, align 4, !tbaa !8
  %172 = load ptr, ptr %11, align 8, !tbaa !40
  %173 = load i32, ptr %172, align 4
  %174 = and i32 %171, 1
  %175 = and i32 %173, -2
  %176 = or i32 %175, %174
  store i32 %176, ptr %172, align 4
  %177 = load ptr, ptr %7, align 8, !tbaa !26
  %178 = icmp ne ptr %177, null
  br i1 %178, label %179, label %187

179:                                              ; preds = %153
  %180 = load ptr, ptr %11, align 8, !tbaa !40
  %181 = getelementptr inbounds nuw %struct.clause_t, ptr %180, i32 0, i32 1
  %182 = getelementptr inbounds [0 x i32], ptr %181, i64 0, i64 0
  %183 = load ptr, ptr %7, align 8, !tbaa !26
  %184 = load i32, ptr %8, align 4, !tbaa !8
  %185 = sext i32 %184 to i64
  %186 = mul i64 4, %185
  call void @llvm.memcpy.p0.p0.i64(ptr align 4 %182, ptr align 4 %183, i64 %186, i1 false)
  br label %187

187:                                              ; preds = %179, %153
  %188 = load i32, ptr %9, align 4, !tbaa !8
  %189 = load i32, ptr %10, align 4, !tbaa !8
  %190 = or i32 %188, %189
  %191 = icmp ne i32 %190, 0
  br i1 %191, label %192, label %206

192:                                              ; preds = %187
  %193 = load ptr, ptr %6, align 8, !tbaa !51
  %194 = getelementptr inbounds nuw %struct.Sat_Mem_t_, ptr %193, i32 0, i32 0
  %195 = load i32, ptr %9, align 4, !tbaa !8
  %196 = sext i32 %195 to i64
  %197 = getelementptr inbounds [2 x i32], ptr %194, i64 0, i64 %196
  %198 = load i32, ptr %197, align 4, !tbaa !8
  %199 = load ptr, ptr %11, align 8, !tbaa !40
  %200 = getelementptr inbounds nuw %struct.clause_t, ptr %199, i32 0, i32 1
  %201 = load ptr, ptr %11, align 8, !tbaa !40
  %202 = load i32, ptr %201, align 4
  %203 = lshr i32 %202, 11
  %204 = zext i32 %203 to i64
  %205 = getelementptr inbounds nuw [0 x i32], ptr %200, i64 0, i64 %204
  store i32 %198, ptr %205, align 4, !tbaa !8
  br label %206

206:                                              ; preds = %192, %187
  %207 = load ptr, ptr %6, align 8, !tbaa !51
  %208 = getelementptr inbounds nuw %struct.Sat_Mem_t_, ptr %207, i32 0, i32 0
  %209 = load i32, ptr %9, align 4, !tbaa !8
  %210 = sext i32 %209 to i64
  %211 = getelementptr inbounds [2 x i32], ptr %208, i64 0, i64 %210
  %212 = load i32, ptr %211, align 4, !tbaa !8
  %213 = add nsw i32 %212, 1
  store i32 %213, ptr %211, align 4, !tbaa !8
  %214 = load ptr, ptr %12, align 8, !tbaa !26
  %215 = load i32, ptr %13, align 4, !tbaa !8
  %216 = call i32 @Sat_MemIncLimit(ptr noundef %214, i32 noundef %215)
  %217 = load ptr, ptr %6, align 8, !tbaa !51
  %218 = load i32, ptr %9, align 4, !tbaa !8
  %219 = call i32 @Sat_MemHandCurrent(ptr noundef %217, i32 noundef %218)
  %220 = load i32, ptr %13, align 4, !tbaa !8
  %221 = sub nsw i32 %219, %220
  call void @llvm.lifetime.end.p0(i64 4, ptr %13) #13
  call void @llvm.lifetime.end.p0(i64 8, ptr %12) #13
  call void @llvm.lifetime.end.p0(i64 8, ptr %11) #13
  ret i32 %221
}