; Function Attrs: inlinehint mustprogress nounwind willreturn uwtable
define internal fastcc i32 @Sat_MemAppend(ptr noundef captures(none) %0, ptr noundef readonly %1, i32 noundef %2, i32 noundef %3) unnamed_addr #4 {
  %5 = getelementptr inbounds nuw i8, ptr %0, i64 48
  %6 = load ptr, ptr %5, align 8, !tbaa !42
  %7 = getelementptr inbounds nuw i8, ptr %0, i64 24
  %8 = sext i32 %3 to i64
  %9 = getelementptr inbounds [2 x i32], ptr %7, i64 0, i64 %8
  %10 = load i32, ptr %9, align 4, !tbaa !29
  %11 = sext i32 %10 to i64
  %12 = getelementptr inbounds ptr, ptr %6, i64 %11
  %13 = load ptr, ptr %12, align 8, !tbaa !43
  %14 = add nsw i32 %2, 2
  %15 = add nsw i32 %14, %3
  %16 = sdiv i32 %15, 2
  %17 = shl nsw i32 %16, 1
  %.val = load i32, ptr %13, align 4, !tbaa !29
  %18 = add i32 %17, 2
  %19 = add i32 %18, %.val
  %20 = getelementptr inbounds nuw i8, ptr %0, i64 32
  %21 = load i32, ptr %20, align 8, !tbaa !40
  %22 = shl nuw i32 1, %21
  %.not = icmp slt i32 %19, %22
  br i1 %.not, label %51, label %23

23:                                               ; preds = %4
  %24 = add nsw i32 %10, 2
  store i32 %24, ptr %9, align 4, !tbaa !29
  %25 = getelementptr inbounds nuw i8, ptr %0, i64 44
  %26 = load i32, ptr %25, align 4, !tbaa !49
  %.not61 = icmp slt i32 %24, %26
  br i1 %.not61, label %37, label %27

27:                                               ; preds = %23
  %28 = shl nsw i32 %26, 1
  %29 = sext i32 %28 to i64
  %30 = shl nsw i64 %29, 3
  %31 = tail call ptr @realloc(ptr noundef nonnull %6, i64 noundef %30) #28
  store ptr %31, ptr %5, align 8, !tbaa !42
  %32 = load i32, ptr %25, align 4, !tbaa !49
  %33 = sext i32 %32 to i64
  %34 = getelementptr inbounds ptr, ptr %31, i64 %33
  %35 = shl nsw i64 %33, 3
  tail call void @llvm.memset.p0.i64(ptr align 8 %34, i8 0, i64 %35, i1 false)
  %36 = shl nsw i32 %32, 1
  store i32 %36, ptr %25, align 4, !tbaa !49
  %.pre = load i32, ptr %9, align 4, !tbaa !29
  br label %37

37:                                               ; preds = %27, %23
  %38 = phi i32 [ %.pre, %27 ], [ %24, %23 ]
  %39 = phi ptr [ %31, %27 ], [ %6, %23 ]
  %40 = sext i32 %38 to i64
  %41 = getelementptr inbounds ptr, ptr %39, i64 %40
  %42 = load ptr, ptr %41, align 8, !tbaa !43
  %43 = icmp eq ptr %42, null
  br i1 %43, label %44, label %49

44:                                               ; preds = %37
  %45 = load i32, ptr %20, align 8, !tbaa !40
  %46 = zext nneg i32 %45 to i64
  %sext = shl i64 4294967296, %46
  %47 = ashr exact i64 %sext, 30
  %48 = tail call noalias ptr @malloc(i64 noundef %47) #29
  store ptr %48, ptr %41, align 8, !tbaa !43
  br label %49

49:                                               ; preds = %44, %37
  %50 = phi ptr [ %48, %44 ], [ %42, %37 ]
  store i32 2, ptr %50, align 4, !tbaa !29
  br label %51

51:                                               ; preds = %49, %4
  %.0.val = phi i32 [ 2, %49 ], [ %.val, %4 ]
  %.0 = phi ptr [ %50, %49 ], [ %13, %4 ]
  %52 = sext i32 %.0.val to i64
  %53 = getelementptr inbounds i32, ptr %.0, i64 %52
  store i32 0, ptr %53, align 4, !tbaa !29
  %.0.val65 = load i32, ptr %.0, align 4, !tbaa !29
  %54 = sext i32 %.0.val65 to i64
  %55 = getelementptr inbounds i32, ptr %.0, i64 %54
  %56 = load i32, ptr %55, align 4
  %57 = shl i32 %2, 11
  %58 = and i32 %56, 2046
  %59 = and i32 %3, 1
  %60 = or disjoint i32 %58, %59
  %61 = or disjoint i32 %60, %57
  store i32 %61, ptr %55, align 4
  %.not63 = icmp eq ptr %1, null
  br i1 %.not63, label %66, label %62

62:                                               ; preds = %51
  %63 = getelementptr inbounds nuw i8, ptr %55, i64 4
  %64 = sext i32 %2 to i64
  %65 = shl nsw i64 %64, 2
  tail call void @llvm.memcpy.p0.p0.i64(ptr nonnull align 4 %63, ptr nonnull align 4 %1, i64 %65, i1 false)
  br label %66

66:                                               ; preds = %62, %51
  %.not64 = icmp eq i32 %3, 0
  %.phi.trans.insert = getelementptr inbounds [2 x i32], ptr %0, i64 0, i64 %8
  %.pre67 = load i32, ptr %.phi.trans.insert, align 4, !tbaa !29
  br i1 %.not64, label %._crit_edge, label %67

67:                                               ; preds = %66
  %68 = getelementptr inbounds nuw i8, ptr %55, i64 4
  %69 = and i32 %2, 2097151
  %70 = zext nneg i32 %69 to i64
  %71 = getelementptr inbounds nuw [0 x i32], ptr %68, i64 0, i64 %70
  store i32 %.pre67, ptr %71, align 4, !tbaa !29
  br label %._crit_edge

._crit_edge:                                      ; preds = %66, %67
  %72 = getelementptr inbounds [2 x i32], ptr %0, i64 0, i64 %8
  %73 = add nsw i32 %.pre67, 1
  store i32 %73, ptr %72, align 4, !tbaa !29
  %74 = load i32, ptr %.0, align 4, !tbaa !29
  %75 = add nsw i32 %74, %17
  store i32 %75, ptr %.0, align 4, !tbaa !29
  %76 = load i32, ptr %9, align 4, !tbaa !29
  %77 = load i32, ptr %20, align 8, !tbaa !40
  %78 = shl i32 %76, %77
  %79 = load ptr, ptr %5, align 8, !tbaa !42
  %80 = sext i32 %76 to i64
  %81 = getelementptr inbounds ptr, ptr %79, i64 %80
  %82 = load ptr, ptr %81, align 8, !tbaa !43
  %.val.i = load i32, ptr %82, align 4, !tbaa !29
  %83 = or i32 %.val.i, %78
  %84 = sub nsw i32 %83, %17
  ret i32 %84
}